target datalayout = "e-m:e-p270:32:32-p271:32:32-p272:64:64-i64:64-i128:128-f80:128-n8:16:32:64-S128"
target triple = "x86_64-pc-linux-gnu"

%struct._lv_lru_t = type { ptr, i64, i64, i64, i64, i64, i32, ptr, ptr, ptr }

; Function Attrs: nounwind uwtable
define ptr @lv_lru_create(i64 noundef %0, i64 noundef %1, ptr noundef %2, ptr noundef %3) #0 {
  %5 = alloca ptr, align 8
  %6 = alloca i64, align 8
  %7 = alloca i64, align 8
  %8 = alloca ptr, align 8
  %9 = alloca ptr, align 8
  %10 = alloca ptr, align 8
  %11 = alloca i32, align 4
  store i64 %0, ptr %6, align 8, !tbaa !3
  store i64 %1, ptr %7, align 8, !tbaa !3
  store ptr %2, ptr %8, align 8, !tbaa !7
  store ptr %3, ptr %9, align 8, !tbaa !7
  call void @llvm.lifetime.start.p0(i64 8, ptr %10) #4
  %12 = call ptr @lv_malloc_zeroed(i64 noundef 80)
  store ptr %12, ptr %10, align 8, !tbaa !7
  %13 = load ptr, ptr %10, align 8, !tbaa !7
  %14 = icmp ne ptr %13, null
  br i1 %14, label %19, label %15

15:                                               ; preds = %4
  br label %16

16:                                               ; preds = %15
  br label %17

17:                                               ; preds = %16
  br label %18

18:                                               ; preds = %17
  store ptr null, ptr %5, align 8
  store i32 1, ptr %11, align 4
  br label %73

19:                                               ; preds = %4
  %20 = load i64, ptr %6, align 8, !tbaa !3
  %21 = load i64, ptr %7, align 8, !tbaa !3
  %22 = udiv i64 %20, %21
  %23 = load ptr, ptr %10, align 8, !tbaa !7
  %24 = getelementptr inbounds nuw %struct._lv_lru_t, ptr %23, i32 0, i32 5
  store i64 %22, ptr %24, align 8, !tbaa !9
  %25 = load i64, ptr %7, align 8, !tbaa !3
  %26 = load ptr, ptr %10, align 8, !tbaa !7
  %27 = getelementptr inbounds nuw %struct._lv_lru_t, ptr %26, i32 0, i32 4
  store i64 %25, ptr %27, align 8, !tbaa !12
  %28 = load i64, ptr %6, align 8, !tbaa !3
  %29 = load ptr, ptr %10, align 8, !tbaa !7
  %30 = getelementptr inbounds nuw %struct._lv_lru_t, ptr %29, i32 0, i32 2
  store i64 %28, ptr %30, align 8, !tbaa !13
  %31 = load i64, ptr %6, align 8, !tbaa !3
  %32 = load ptr, ptr %10, align 8, !tbaa !7
  %33 = getelementptr inbounds nuw %struct._lv_lru_t, ptr %32, i32 0, i32 3
  store i64 %31, ptr %33, align 8, !tbaa !14
  %34 = call i32 @lv_rand(i32 noundef 1, i32 noundef -1)
  %35 = load ptr, ptr %10, align 8, !tbaa !7
  %36 = getelementptr inbounds nuw %struct._lv_lru_t, ptr %35, i32 0, i32 6
  store i32 %34, ptr %36, align 8, !tbaa !15
  %37 = load ptr, ptr %8, align 8, !tbaa !7
  %38 = icmp ne ptr %37, null
  br i1 %38, label %39, label %41

39:                                               ; preds = %19
  %40 = load ptr, ptr %8, align 8, !tbaa !7
  br label %42

41:                                               ; preds = %19
  br label %42

42:                                               ; preds = %41, %39
  %43 = phi ptr [ %40, %39 ], [ @lv_free, %41 ]
  %44 = load ptr, ptr %10, align 8, !tbaa !7
  %45 = getelementptr inbounds nuw %struct._lv_lru_t, ptr %44, i32 0, i32 7
  store ptr %43, ptr %45, align 8, !tbaa !16
  %46 = load ptr, ptr %9, align 8, !tbaa !7
  %47 = icmp ne ptr %46, null
  br i1 %47, label %48, label %50

48:                                               ; preds = %42
  %49 = load ptr, ptr %9, align 8, !tbaa !7
  br label %51

50:                                               ; preds = %42
  br label %51

51:                                               ; preds = %50, %48
  %52 = phi ptr [ %49, %48 ], [ @lv_free, %50 ]
  %53 = load ptr, ptr %10, align 8, !tbaa !7
  %54 = getelementptr inbounds nuw %struct._lv_lru_t, ptr %53, i32 0, i32 8
  store ptr %52, ptr %54, align 8, !tbaa !17
  %55 = load ptr, ptr %10, align 8, !tbaa !7
  %56 = getelementptr inbounds nuw %struct._lv_lru_t, ptr %55, i32 0, i32 5
  %57 = load i64, ptr %56, align 8, !tbaa !9
  %58 = mul i64 8, %57
  %59 = call ptr @lv_malloc_zeroed(i64 noundef %58)
  %60 = load ptr, ptr %10, align 8, !tbaa !7
  %61 = getelementptr inbounds nuw %struct._lv_lru_t, ptr %60, i32 0, i32 0
  store ptr %59, ptr %61, align 8, !tbaa !18
  %62 = load ptr, ptr %10, align 8, !tbaa !7
  %63 = getelementptr inbounds nuw %struct._lv_lru_t, ptr %62, i32 0, i32 0
  %64 = load ptr, ptr %63, align 8, !tbaa !18
  %65 = icmp ne ptr %64, null
  br i1 %65, label %71, label %66

66:                                               ; preds = %51
  br label %67

67:                                               ; preds = %66
  br label %68

68:                                               ; preds = %67
  br label %69

69:                                               ; preds = %68
  %70 = load ptr, ptr %10, align 8, !tbaa !7
  call void @lv_free(ptr noundef %70)
  store ptr null, ptr %5, align 8
  store i32 1, ptr %11, align 4
  br label %73

71:                                               ; preds = %51
  %72 = load ptr, ptr %10, align 8, !tbaa !7
  store ptr %72, ptr %5, align 8
  store i32 1, ptr %11, align 4
  br label %73

73:                                               ; preds = %71, %69, %18
  call void @llvm.lifetime.end.p0(i64 8, ptr %10) #4
  %74 = load ptr, ptr %5, align 8
  ret ptr %74
}