; Function Attrs: nounwind uwtable
define ptr @lv_lru_create(i64 noundef %0, i64 noundef %1, ptr noundef %2, ptr noundef %3) local_unnamed_addr #0 {
  %5 = tail call ptr @lv_malloc_zeroed(i64 noundef 80) #2
  %.not = icmp eq ptr %5, null
  br i1 %.not, label %22, label %6

6:                                                ; preds = %4
  %7 = udiv i64 %0, %1
  %8 = getelementptr inbounds nuw i8, ptr %5, i64 40
  store i64 %7, ptr %8, align 8, !tbaa !3
  %9 = getelementptr inbounds nuw i8, ptr %5, i64 32
  store i64 %1, ptr %9, align 8, !tbaa !10
  %10 = getelementptr inbounds nuw i8, ptr %5, i64 16
  store i64 %0, ptr %10, align 8, !tbaa !11
  %11 = getelementptr inbounds nuw i8, ptr %5, i64 24
  store i64 %0, ptr %11, align 8, !tbaa !12
  %12 = tail call i32 @lv_rand(i32 noundef 1, i32 noundef -1) #2
  %13 = getelementptr inbounds nuw i8, ptr %5, i64 48
  store i32 %12, ptr %13, align 8, !tbaa !13
  %.not23 = icmp eq ptr %2, null
  %14 = select i1 %.not23, ptr @lv_free, ptr %2
  %15 = getelementptr inbounds nuw i8, ptr %5, i64 56
  store ptr %14, ptr %15, align 8, !tbaa !14
  %.not24 = icmp eq ptr %3, null
  %16 = select i1 %.not24, ptr @lv_free, ptr %3
  %17 = getelementptr inbounds nuw i8, ptr %5, i64 64
  store ptr %16, ptr %17, align 8, !tbaa !15
  %18 = load i64, ptr %8, align 8, !tbaa !3
  %19 = shl i64 %18, 3
  %20 = tail call ptr @lv_malloc_zeroed(i64 noundef %19) #2
  store ptr %20, ptr %5, align 8, !tbaa !16
  %.not25 = icmp eq ptr %20, null
  br i1 %.not25, label %21, label %22

21:                                               ; preds = %6
  tail call void @lv_free(ptr noundef nonnull %5) #2
  br label %22

22:                                               ; preds = %6, %4, %21
  %.0 = phi ptr [ null, %21 ], [ null, %4 ], [ %5, %6 ]
  ret ptr %.0
}